; Function Attrs: mustprogress nofree norecurse nosync nounwind willreturn memory(readwrite, inaccessiblemem: none) uwtable
define internal noundef i32 @fS(i32 %0, double %1, ptr noundef readonly captures(none) %2, ptr readnone captures(none) %3, i32 noundef %4, ptr noundef readonly captures(none) %5, ptr noundef readonly captures(none) %6, ptr noundef readonly captures(none) %7, ptr readnone captures(none) %8, ptr readnone captures(none) %9) #4 {
  %11 = getelementptr inbounds nuw i8, ptr %7, i64 16
  %12 = load double, ptr %11, align 8, !tbaa !11
  %13 = getelementptr inbounds nuw i8, ptr %7, i64 24
  %14 = load double, ptr %13, align 8, !tbaa !11
  %15 = getelementptr inbounds nuw i8, ptr %7, i64 32
  %16 = load double, ptr %15, align 8, !tbaa !11
  %17 = load ptr, ptr %2, align 8, !tbaa !13
  %18 = getelementptr inbounds nuw i8, ptr %17, i64 16
  %19 = load ptr, ptr %18, align 8, !tbaa !16
  %20 = getelementptr inbounds nuw i8, ptr %19, i64 8
  %21 = load double, ptr %20, align 8, !tbaa !11
  %22 = getelementptr inbounds nuw i8, ptr %19, i64 16
  %23 = load double, ptr %22, align 8, !tbaa !11
  %24 = load ptr, ptr %5, align 8, !tbaa !13
  %25 = getelementptr inbounds nuw i8, ptr %24, i64 16
  %26 = load ptr, ptr %25, align 8, !tbaa !16
  %27 = load double, ptr %26, align 8, !tbaa !11
  %28 = getelementptr inbounds nuw i8, ptr %26, i64 8
  %29 = load double, ptr %28, align 8, !tbaa !11
  %30 = getelementptr inbounds nuw i8, ptr %26, i64 16
  %31 = load double, ptr %30, align 8, !tbaa !11
  %32 = fneg double %12
  %33 = fmul double %14, %23
  %34 = fmul double %33, %29
  %35 = tail call double @llvm.fmuladd.f64(double %32, double %27, double %34)
  %36 = fmul double %14, %21
  %37 = tail call double @llvm.fmuladd.f64(double %36, double %31, double %35)
  %38 = fmul double %16, 2.000000e+00
  %39 = fmul double %38, %21
  %40 = fmul double %39, %29
  %41 = fneg double %37
  %42 = fsub double %41, %40
  switch i32 %4, label %55 [
    i32 0, label %43
    i32 1, label %47
    i32 2, label %51
  ]

43:                                               ; preds = %10
  %44 = load double, ptr %19, align 8, !tbaa !11
  %45 = fsub double %37, %44
  %46 = fadd double %42, %44
  br label %55

47:                                               ; preds = %10
  %48 = tail call double @llvm.fmuladd.f64(double %21, double %23, double %37)
  %49 = fneg double %21
  %50 = tail call double @llvm.fmuladd.f64(double %49, double %23, double %42)
  br label %55

51:                                               ; preds = %10
  %52 = fneg double %21
  %53 = tail call double @llvm.fmuladd.f64(double %52, double %21, double %42)
  %54 = tail call double @llvm.fmuladd.f64(double %21, double %21, double %40)
  br label %55

55:                                               ; preds = %51, %47, %43, %10
  %.046 = phi double [ %37, %10 ], [ %37, %51 ], [ %48, %47 ], [ %45, %43 ]
  %.045 = phi double [ %42, %10 ], [ %53, %51 ], [ %50, %47 ], [ %46, %43 ]
  %.0 = phi double [ %40, %10 ], [ %54, %51 ], [ %40, %47 ], [ %40, %43 ]
  %56 = load ptr, ptr %6, align 8, !tbaa !13
  %57 = getelementptr inbounds nuw i8, ptr %56, i64 16
  %58 = load ptr, ptr %57, align 8, !tbaa !16
  store double %.046, ptr %58, align 8, !tbaa !11
  %59 = getelementptr inbounds nuw i8, ptr %58, i64 8
  store double %.045, ptr %59, align 8, !tbaa !11
  %60 = getelementptr inbounds nuw i8, ptr %58, i64 16
  store double %.0, ptr %60, align 8, !tbaa !11
  ret i32 0
}